target datalayout = "e-m:e-p270:32:32-p271:32:32-p272:64:64-i64:64-i128:128-f80:128-n8:16:32:64-S128"
target triple = "x86_64-pc-linux-gnu"

%struct.__ncnn_allocator_t = type { ptr, ptr, ptr }
%"class.ncnn::Allocator" = type { ptr }
%class.UnlockedPoolAllocator_c_api = type { %"class.ncnn::UnlockedPoolAllocator", ptr }
%"class.ncnn::UnlockedPoolAllocator" = type { %"class.ncnn::Allocator", ptr }

; Function Attrs: mustprogress uwtable
define linkonce_odr hidden void @_ZN27UnlockedPoolAllocator_c_apiC2EP18__ncnn_allocator_t(ptr noundef nonnull align 8 dereferenceable(24) %0, ptr noundef %1) unnamed_addr #1 comdat align 2 {
  %3 = alloca ptr, align 8
  %4 = alloca ptr, align 8
  store ptr %0, ptr %3, align 8
  store ptr %1, ptr %4, align 8
  %5 = load ptr, ptr %3, align 8
  call void @_ZN4ncnn21UnlockedPoolAllocatorC2Ev(ptr noundef nonnull align 8 dereferenceable(16) %5)
  store ptr getelementptr inbounds inrange(-16, 32) ({ [6 x ptr] }, ptr @_ZTV27UnlockedPoolAllocator_c_api, i32 0, i32 0, i32 2), ptr %5, align 8
  %6 = load ptr, ptr %4, align 8
  %7 = getelementptr inbounds nuw %class.UnlockedPoolAllocator_c_api, ptr %5, i32 0, i32 1
  store ptr %6, ptr %7, align 8
  ret void
}

; Function Attrs: mustprogress uwtable
define hidden ptr @ncnn_allocator_create_unlocked_pool_allocator() #1 personality ptr @__gxx_personality_v0 {
  %1 = alloca ptr, align 8
  %2 = alloca ptr, align 8
  %3 = alloca i32, align 4
  %4 = call noalias ptr @malloc(i64 noundef 24) #12
  store ptr %4, ptr %1, align 8
  %5 = call noalias noundef nonnull ptr @_Znwm(i64 noundef 24) #13
  %6 = load ptr, ptr %1, align 8
  invoke void @_ZN27UnlockedPoolAllocator_c_apiC2EP18__ncnn_allocator_t(ptr noundef nonnull align 8 dereferenceable(24) %5, ptr noundef %6)
          to label %7 unwind label %15

7:                                                ; preds = %0
  %8 = load ptr, ptr %1, align 8
  %9 = getelementptr inbounds nuw %struct.__ncnn_allocator_t, ptr %8, i32 0, i32 0
  store ptr %5, ptr %9, align 8
  %10 = load ptr, ptr %1, align 8
  %11 = getelementptr inbounds nuw %struct.__ncnn_allocator_t, ptr %10, i32 0, i32 1
  store ptr @_ZL40__ncnn_UnlockedPoolAllocator_fast_mallocP18__ncnn_allocator_tm, ptr %11, align 8
  %12 = load ptr, ptr %1, align 8
  %13 = getelementptr inbounds nuw %struct.__ncnn_allocator_t, ptr %12, i32 0, i32 2
  store ptr @_ZL38__ncnn_UnlockedPoolAllocator_fast_freeP18__ncnn_allocator_tPv, ptr %13, align 8
  %14 = load ptr, ptr %1, align 8
  ret ptr %14

15:                                               ; preds = %0
  %16 = landingpad { ptr, i32 }
          cleanup
  %17 = extractvalue { ptr, i32 } %16, 0
  store ptr %17, ptr %2, align 8
  %18 = extractvalue { ptr, i32 } %16, 1
  store i32 %18, ptr %3, align 4
  call void @_ZdlPvm(ptr noundef %5, i64 noundef 24) #14
  br label %19

19:                                               ; preds = %15
  %20 = load ptr, ptr %2, align 8
  %21 = load i32, ptr %3, align 4
  %22 = insertvalue { ptr, i32 } poison, ptr %20, 0
  %23 = insertvalue { ptr, i32 } %22, i32 %21, 1
  resume { ptr, i32 } %23
}